target datalayout = "e-m:e-p270:32:32-p271:32:32-p272:64:64-i64:64-i128:128-f80:128-n8:16:32:64-S128"
target triple = "x86_64-pc-linux-gnu"

%"class.toku::treenode" = type <{ %struct.toku_mutex_t, %"class.toku::keyrange", i64, i8, [7 x i8], ptr, %"struct.toku::treenode::child_ptr", %"struct.toku::treenode::child_ptr", ptr, i8, i8, [6 x i8] }>
%struct.toku_mutex_t = type { %union.pthread_mutex_t, ptr }
%union.pthread_mutex_t = type { %struct.__pthread_mutex_s }
%struct.__pthread_mutex_s = type { i32, i32, i32, i32, i32, i16, i16, %struct.__pthread_internal_list }
%struct.__pthread_internal_list = type { ptr, ptr }
%"class.toku::keyrange" = type <{ %struct.__toku_dbt, %struct.__toku_dbt, ptr, ptr, i8, [7 x i8] }>
%struct.__toku_dbt = type { ptr, i64, i64, i32 }
%"struct.toku::treenode::child_ptr" = type { ptr, i32 }
%struct.toku_mutex_instrumentation = type { i8 }

@.str = private unnamed_addr constant [163 x i8] c"generated/home/dtcxzyw/WorkSpace/Projects/compilers/llvm-opt-benchmark/bench/rocksdb/rocksdb/utilities/transactions/lock/range/range_tree/lib/locktree/treenode.cc\00", align 1

; Function Attrs: inlinehint mustprogress nounwind uwtable
define linkonce_odr void @_Z25toku_instr_mutex_lock_endR26toku_mutex_instrumentationi(ptr noundef nonnull align 1 dereferenceable(1) %0, i32 noundef %1) #4 comdat {
  %3 = alloca ptr, align 8
  %4 = alloca i32, align 4
  store ptr %0, ptr %3, align 8, !tbaa !69
  store i32 %1, ptr %4, align 4, !tbaa !13
  ret void
}

; Function Attrs: inlinehint mustprogress nounwind uwtable
define linkonce_odr void @_Z27toku_instr_mutex_lock_startR26toku_mutex_instrumentationR12toku_mutex_tPKci(ptr noundef nonnull align 1 dereferenceable(1) %0, ptr noundef nonnull align 8 dereferenceable(48) %1, ptr noundef %2, i32 noundef %3) #4 comdat {
  %5 = alloca ptr, align 8
  %6 = alloca ptr, align 8
  %7 = alloca ptr, align 8
  %8 = alloca i32, align 4
  store ptr %0, ptr %5, align 8, !tbaa !69
  store ptr %1, ptr %6, align 8, !tbaa !9
  store ptr %2, ptr %7, align 8, !tbaa !11
  store i32 %3, ptr %8, align 4, !tbaa !13
  ret void
}

; Function Attrs: inlinehint mustprogress uwtable
define linkonce_odr void @_Z36toku_mutex_lock_with_source_locationP12toku_mutex_tPKci(ptr noundef %0, ptr noundef %1, i32 noundef %2) #1 comdat {
  %4 = alloca ptr, align 8
  %5 = alloca ptr, align 8
  %6 = alloca i32, align 4
  %7 = alloca %struct.toku_mutex_instrumentation, align 1
  %8 = alloca i32, align 4
  store ptr %0, ptr %4, align 8, !tbaa !9
  store ptr %1, ptr %5, align 8, !tbaa !11
  store i32 %2, ptr %6, align 4, !tbaa !13
  call void @llvm.lifetime.start.p0(i64 1, ptr %7) #16
  %9 = load ptr, ptr %4, align 8, !tbaa !9
  %10 = load ptr, ptr %5, align 8, !tbaa !11
  %11 = load i32, ptr %6, align 4, !tbaa !13
  call void @_Z27toku_instr_mutex_lock_startR26toku_mutex_instrumentationR12toku_mutex_tPKci(ptr noundef nonnull align 1 dereferenceable(1) %7, ptr noundef nonnull align 8 dereferenceable(48) %9, ptr noundef %10, i32 noundef %11)
  call void @llvm.lifetime.start.p0(i64 4, ptr %8) #16
  %12 = load ptr, ptr %4, align 8, !tbaa !9
  %13 = getelementptr inbounds nuw %struct.toku_mutex_t, ptr %12, i32 0, i32 0
  %14 = call i32 @pthread_mutex_lock(ptr noundef %13) #16
  store i32 %14, ptr %8, align 4, !tbaa !13
  %15 = load i32, ptr %8, align 4, !tbaa !13
  call void @_Z25toku_instr_mutex_lock_endR26toku_mutex_instrumentationi(ptr noundef nonnull align 1 dereferenceable(1) %7, i32 noundef %15)
  call void @llvm.lifetime.end.p0(i64 4, ptr %8) #16
  call void @llvm.lifetime.end.p0(i64 1, ptr %7) #16
  ret void
}

; Function Attrs: mustprogress nounwind uwtable
define noundef i32 @_ZNK4toku8treenode18get_depth_estimateEv(ptr noundef nonnull align 8 dereferenceable(202) %0) #5 align 2 {
  %2 = alloca ptr, align 8
  %3 = alloca i32, align 4
  %4 = alloca i32, align 4
  store ptr %0, ptr %2, align 8, !tbaa !4
  %5 = load ptr, ptr %2, align 8
  call void @llvm.lifetime.start.p0(i64 4, ptr %3) #16
  %6 = getelementptr inbounds nuw %"class.toku::treenode", ptr %5, i32 0, i32 6
  %7 = getelementptr inbounds nuw %"struct.toku::treenode::child_ptr", ptr %6, i32 0, i32 1
  %8 = load i32, ptr %7, align 8, !tbaa !54
  store i32 %8, ptr %3, align 4, !tbaa !13
  call void @llvm.lifetime.start.p0(i64 4, ptr %4) #16
  %9 = getelementptr inbounds nuw %"class.toku::treenode", ptr %5, i32 0, i32 7
  %10 = getelementptr inbounds nuw %"struct.toku::treenode::child_ptr", ptr %9, i32 0, i32 1
  %11 = load i32, ptr %10, align 8, !tbaa !55
  store i32 %11, ptr %4, align 4, !tbaa !13
  %12 = load i32, ptr %3, align 4, !tbaa !13
  %13 = load i32, ptr %4, align 4, !tbaa !13
  %14 = icmp ugt i32 %12, %13
  br i1 %14, label %15, label %17

15:                                               ; preds = %1
  %16 = load i32, ptr %3, align 4, !tbaa !13
  br label %19

17:                                               ; preds = %1
  %18 = load i32, ptr %4, align 4, !tbaa !13
  br label %19

19:                                               ; preds = %17, %15
  %20 = phi i32 [ %16, %15 ], [ %18, %17 ]
  %21 = add i32 %20, 1
  call void @llvm.lifetime.end.p0(i64 4, ptr %4) #16
  call void @llvm.lifetime.end.p0(i64 4, ptr %3) #16
  ret i32 %21
}

; Function Attrs: mustprogress uwtable
define void @_ZN4toku8treenode10mutex_lockEv(ptr noundef nonnull align 8 dereferenceable(202) %0) #0 align 2 {
  %2 = alloca ptr, align 8
  store ptr %0, ptr %2, align 8, !tbaa !4
  %3 = load ptr, ptr %2, align 8
  %4 = getelementptr inbounds nuw %"class.toku::treenode", ptr %3, i32 0, i32 0
  call void @_Z36toku_mutex_lock_with_source_locationP12toku_mutex_tPKci(ptr noundef %4, ptr noundef @.str, i32 noundef 63)
  ret void
}

; Function Attrs: mustprogress nounwind uwtable
define void @_ZN4toku8treenode9child_ptr3setEPS0_(ptr noundef nonnull align 8 dereferenceable(16) %0, ptr noundef %1) #5 align 2 {
  %3 = alloca ptr, align 8
  %4 = alloca ptr, align 8
  store ptr %0, ptr %3, align 8, !tbaa !37
  store ptr %1, ptr %4, align 8, !tbaa !4
  %5 = load ptr, ptr %3, align 8
  %6 = load ptr, ptr %4, align 8, !tbaa !4
  %7 = getelementptr inbounds nuw %"struct.toku::treenode::child_ptr", ptr %5, i32 0, i32 0
  store ptr %6, ptr %7, align 8, !tbaa !39
  %8 = getelementptr inbounds nuw %"struct.toku::treenode::child_ptr", ptr %5, i32 0, i32 0
  %9 = load ptr, ptr %8, align 8, !tbaa !39
  %10 = icmp ne ptr %9, null
  br i1 %10, label %11, label %15

11:                                               ; preds = %2
  %12 = getelementptr inbounds nuw %"struct.toku::treenode::child_ptr", ptr %5, i32 0, i32 0
  %13 = load ptr, ptr %12, align 8, !tbaa !39
  %14 = call noundef i32 @_ZNK4toku8treenode18get_depth_estimateEv(ptr noundef nonnull align 8 dereferenceable(202) %13)
  br label %16

15:                                               ; preds = %2
  br label %16

16:                                               ; preds = %15, %11
  %17 = phi i32 [ %14, %11 ], [ 0, %15 ]
  %18 = getelementptr inbounds nuw %"struct.toku::treenode::child_ptr", ptr %5, i32 0, i32 1
  store i32 %17, ptr %18, align 8, !tbaa !40
  ret void
}

; Function Attrs: mustprogress uwtable
define noundef ptr @_ZN4toku8treenode9child_ptr10get_lockedEv(ptr noundef nonnull align 8 dereferenceable(16) %0) #0 align 2 {
  %2 = alloca ptr, align 8
  store ptr %0, ptr %2, align 8, !tbaa !37
  %3 = load ptr, ptr %2, align 8
  %4 = getelementptr inbounds nuw %"struct.toku::treenode::child_ptr", ptr %3, i32 0, i32 0
  %5 = load ptr, ptr %4, align 8, !tbaa !39
  %6 = icmp ne ptr %5, null
  br i1 %6, label %7, label %14

7:                                                ; preds = %1
  %8 = getelementptr inbounds nuw %"struct.toku::treenode::child_ptr", ptr %3, i32 0, i32 0
  %9 = load ptr, ptr %8, align 8, !tbaa !39
  call void @_ZN4toku8treenode10mutex_lockEv(ptr noundef nonnull align 8 dereferenceable(202) %9)
  %10 = getelementptr inbounds nuw %"struct.toku::treenode::child_ptr", ptr %3, i32 0, i32 0
  %11 = load ptr, ptr %10, align 8, !tbaa !39
  %12 = call noundef i32 @_ZNK4toku8treenode18get_depth_estimateEv(ptr noundef nonnull align 8 dereferenceable(202) %11)
  %13 = getelementptr inbounds nuw %"struct.toku::treenode::child_ptr", ptr %3, i32 0, i32 1
  store i32 %12, ptr %13, align 8, !tbaa !40
  br label %14

14:                                               ; preds = %7, %1
  %15 = getelementptr inbounds nuw %"struct.toku::treenode::child_ptr", ptr %3, i32 0, i32 0
  %16 = load ptr, ptr %15, align 8, !tbaa !39
  ret ptr %16
}

; Function Attrs: mustprogress uwtable
define noundef ptr @_ZN4toku8treenode24lock_and_rebalance_rightEv(ptr noundef nonnull align 8 dereferenceable(202) %0) #0 align 2 {
  %2 = alloca ptr, align 8
  %3 = alloca ptr, align 8
  %4 = alloca ptr, align 8
  store ptr %0, ptr %2, align 8, !tbaa !4
  %5 = load ptr, ptr %2, align 8
  call void @llvm.lifetime.start.p0(i64 8, ptr %3) #16
  %6 = getelementptr inbounds nuw %"class.toku::treenode", ptr %5, i32 0, i32 7
  %7 = call noundef ptr @_ZN4toku8treenode9child_ptr10get_lockedEv(ptr noundef nonnull align 8 dereferenceable(16) %6)
  store ptr %7, ptr %3, align 8, !tbaa !4
  %8 = load ptr, ptr %3, align 8, !tbaa !4
  %9 = icmp ne ptr %8, null
  br i1 %9, label %10, label %16

10:                                               ; preds = %1
  call void @llvm.lifetime.start.p0(i64 8, ptr %4) #16
  %11 = load ptr, ptr %3, align 8, !tbaa !4
  %12 = call noundef ptr @_ZN4toku8treenode15maybe_rebalanceEv(ptr noundef nonnull align 8 dereferenceable(202) %11)
  store ptr %12, ptr %4, align 8, !tbaa !4
  %13 = getelementptr inbounds nuw %"class.toku::treenode", ptr %5, i32 0, i32 7
  %14 = load ptr, ptr %4, align 8, !tbaa !4
  call void @_ZN4toku8treenode9child_ptr3setEPS0_(ptr noundef nonnull align 8 dereferenceable(16) %13, ptr noundef %14)
  %15 = load ptr, ptr %4, align 8, !tbaa !4
  store ptr %15, ptr %3, align 8, !tbaa !4
  call void @llvm.lifetime.end.p0(i64 8, ptr %4) #16
  br label %16

16:                                               ; preds = %10, %1
  %17 = load ptr, ptr %3, align 8, !tbaa !4
  call void @llvm.lifetime.end.p0(i64 8, ptr %3) #16
  ret ptr %17
}