; Function Attrs: mustprogress nounwind uwtable
define noundef ptr @_ZN4toku8treenode24lock_and_rebalance_rightEv(ptr noundef nonnull align 8 captures(none) dereferenceable(202) %0) local_unnamed_addr #0 align 2 {
  %2 = getelementptr inbounds nuw i8, ptr %0, i64 176
  %3 = load ptr, ptr %2, align 8, !tbaa !26
  %.not.i = icmp eq ptr %3, null
  br i1 %.not.i, label %_ZN4toku8treenode9child_ptr10get_lockedEv.exit.thread, label %4

4:                                                ; preds = %1
  %5 = tail call i32 @pthread_mutex_lock(ptr noundef nonnull align 8 dereferenceable(202) %3) #17
  %6 = load ptr, ptr %2, align 8, !tbaa !26
  %7 = getelementptr inbounds nuw i8, ptr %6, i64 168
  %8 = load i32, ptr %7, align 8, !tbaa !28
  %9 = getelementptr inbounds nuw i8, ptr %6, i64 184
  %10 = load i32, ptr %9, align 8, !tbaa !29
  %11 = tail call i32 @llvm.umax.i32(i32 %8, i32 %10)
  %12 = add i32 %11, 1
  %13 = getelementptr inbounds nuw i8, ptr %0, i64 184
  store i32 %12, ptr %13, align 8, !tbaa !27
  %14 = tail call noundef ptr @_ZN4toku8treenode15maybe_rebalanceEv(ptr noundef nonnull align 8 dereferenceable(202) %6)
  store ptr %14, ptr %2, align 8, !tbaa !26
  %.not.i7 = icmp eq ptr %14, null
  br i1 %.not.i7, label %_ZN4toku8treenode9child_ptr3setEPS0_.exit, label %15

15:                                               ; preds = %4
  %16 = getelementptr inbounds nuw i8, ptr %14, i64 168
  %17 = load i32, ptr %16, align 8, !tbaa !28
  %18 = getelementptr inbounds nuw i8, ptr %14, i64 184
  %19 = load i32, ptr %18, align 8, !tbaa !29
  %20 = tail call i32 @llvm.umax.i32(i32 %17, i32 %19)
  %21 = add i32 %20, 1
  br label %_ZN4toku8treenode9child_ptr3setEPS0_.exit

_ZN4toku8treenode9child_ptr3setEPS0_.exit:        ; preds = %4, %15
  %22 = phi i32 [ %21, %15 ], [ 0, %4 ]
  store i32 %22, ptr %13, align 8, !tbaa !27
  br label %_ZN4toku8treenode9child_ptr10get_lockedEv.exit.thread

_ZN4toku8treenode9child_ptr10get_lockedEv.exit.thread: ; preds = %1, %_ZN4toku8treenode9child_ptr3setEPS0_.exit
  %.0 = phi ptr [ %14, %_ZN4toku8treenode9child_ptr3setEPS0_.exit ], [ null, %1 ]
  ret ptr %.0
}